; Function Attrs: mustprogress nounwind uwtable
define dso_local noundef zeroext i1 @_ZNK4llvm11Instruction11comesBeforeEPKS0_(ptr nocapture noundef nonnull readonly align 8 dereferenceable(72) %0, ptr nocapture noundef readonly %1) local_unnamed_addr #3 align 2 {
  %3 = getelementptr inbounds i8, ptr %0, i64 40
  %4 = load ptr, ptr %3, align 8
  %5 = getelementptr inbounds nuw i8, ptr %4, i64 2
  %6 = load i16, ptr %5, align 2
  %7 = icmp slt i16 %6, 0
  br i1 %7, label %9, label %8

8:                                                ; preds = %2
  tail call void @_ZN4llvm10BasicBlock20renumberInstructionsEv(ptr noundef nonnull align 8 dereferenceable(80) %4) #21
  br label %9

9:                                                ; preds = %8, %2
  %10 = getelementptr inbounds nuw i8, ptr %0, i64 56
  %11 = load i32, ptr %10, align 8
  %12 = getelementptr inbounds nuw i8, ptr %1, i64 56
  %13 = load i32, ptr %12, align 8
  %14 = icmp ult i32 %11, %13
  ret i1 %14
}